target datalayout = "e-m:e-p270:32:32-p271:32:32-p272:64:64-i64:64-i128:128-f80:128-n8:16:32:64-S128"
target triple = "x86_64-pc-linux-gnu"

%struct.wl_list = type { ptr, ptr }
%struct.SDL_Rect = type { i32, i32, i32, i32 }
%struct.SDL_CursorData = type { %union.anon.21, i8 }
%union.anon.21 = type { %struct.Wayland_CustomCursor }
%struct.Wayland_CustomCursor = type { ptr, i32, i32, %struct.wl_list }
%struct.SDL_Surface = type { i32, i32, i32, i32, i32, ptr, i32, ptr, i32, i32, ptr, i32, ptr, i32, ptr, i32, %struct.SDL_Rect, %struct.SDL_BlitMap }
%struct.SDL_BlitMap = type { i32, ptr, ptr, %struct.SDL_BlitInfo, i32, i32 }
%struct.SDL_BlitInfo = type { ptr, ptr, i32, i32, i32, i32, ptr, ptr, i32, i32, i32, i32, ptr, ptr, ptr, ptr, ptr, ptr, i32, i32, i8, i8, i8, i8 }
%struct.Wayland_ScaledCustomCursor = type { %struct.Wayland_SHMBuffer, double, %struct.wl_list }
%struct.Wayland_SHMBuffer = type { ptr, ptr, i32 }

@WAYLAND_wl_list_empty = external global ptr, align 8
@WAYLAND_wl_list_insert = external global ptr, align 8

; Function Attrs: nounwind uwtable
define internal ptr @Wayland_CacheScaledCustomCursor(ptr noundef %0, double noundef %1) #0 {
  %3 = alloca ptr, align 8
  %4 = alloca ptr, align 8
  %5 = alloca double, align 8
  %6 = alloca ptr, align 8
  %7 = alloca ptr, align 8
  %8 = alloca i32, align 4
  %9 = alloca ptr, align 8
  store ptr %0, ptr %4, align 8
  store double %1, ptr %5, align 8
  call void @llvm.lifetime.start.p0(i64 8, ptr %6) #7
  store ptr null, ptr %6, align 8
  %10 = load ptr, ptr @WAYLAND_wl_list_empty, align 8
  %11 = load ptr, ptr %4, align 8
  %12 = getelementptr inbounds nuw %struct.SDL_CursorData, ptr %11, i32 0, i32 0
  %13 = getelementptr inbounds nuw %struct.Wayland_CustomCursor, ptr %12, i32 0, i32 3
  %14 = call i32 %10(ptr noundef %13)
  %15 = icmp ne i32 %14, 0
  br i1 %15, label %46, label %16

16:                                               ; preds = %2
  call void @llvm.lifetime.start.p0(i64 8, ptr %7) #7
  store ptr null, ptr %7, align 8
  %17 = load ptr, ptr %4, align 8
  %18 = getelementptr inbounds nuw %struct.SDL_CursorData, ptr %17, i32 0, i32 0
  %19 = getelementptr inbounds nuw %struct.Wayland_CustomCursor, ptr %18, i32 0, i32 3
  %20 = getelementptr inbounds nuw %struct.wl_list, ptr %19, i32 0, i32 1
  %21 = load ptr, ptr %20, align 8
  %22 = getelementptr inbounds i8, ptr %21, i64 -32
  store ptr %22, ptr %7, align 8
  br label %23

23:                                               ; preds = %39, %16
  %24 = load ptr, ptr %7, align 8
  %25 = getelementptr inbounds nuw %struct.Wayland_ScaledCustomCursor, ptr %24, i32 0, i32 2
  %26 = load ptr, ptr %4, align 8
  %27 = getelementptr inbounds nuw %struct.SDL_CursorData, ptr %26, i32 0, i32 0
  %28 = getelementptr inbounds nuw %struct.Wayland_CustomCursor, ptr %27, i32 0, i32 3
  %29 = icmp ne ptr %25, %28
  br i1 %29, label %30, label %45

30:                                               ; preds = %23
  %31 = load ptr, ptr %7, align 8
  %32 = getelementptr inbounds nuw %struct.Wayland_ScaledCustomCursor, ptr %31, i32 0, i32 1
  %33 = load double, ptr %32, align 8
  %34 = load double, ptr %5, align 8
  %35 = fcmp oeq double %33, %34
  br i1 %35, label %36, label %38

36:                                               ; preds = %30
  %37 = load ptr, ptr %7, align 8
  store ptr %37, ptr %6, align 8
  br label %45

38:                                               ; preds = %30
  br label %39

39:                                               ; preds = %38
  %40 = load ptr, ptr %7, align 8
  %41 = getelementptr inbounds nuw %struct.Wayland_ScaledCustomCursor, ptr %40, i32 0, i32 2
  %42 = getelementptr inbounds nuw %struct.wl_list, ptr %41, i32 0, i32 1
  %43 = load ptr, ptr %42, align 8
  %44 = getelementptr inbounds i8, ptr %43, i64 -32
  store ptr %44, ptr %7, align 8
  br label %23, !llvm.loop !14

45:                                               ; preds = %36, %23
  call void @llvm.lifetime.end.p0(i64 8, ptr %7) #7
  br label %46

46:                                               ; preds = %45, %2
  %47 = load ptr, ptr %6, align 8
  %48 = icmp ne ptr %47, null
  br i1 %48, label %117, label %49

49:                                               ; preds = %46
  %50 = call noalias ptr @SDL_calloc_REAL(i64 noundef 1, i64 noundef 48) #8
  store ptr %50, ptr %6, align 8
  %51 = load ptr, ptr %6, align 8
  %52 = icmp ne ptr %51, null
  br i1 %52, label %54, label %53

53:                                               ; preds = %49
  store ptr null, ptr %3, align 8
  store i32 1, ptr %8, align 4
  br label %119

54:                                               ; preds = %49
  call void @llvm.lifetime.start.p0(i64 8, ptr %9) #7
  %55 = load ptr, ptr %4, align 8
  %56 = getelementptr inbounds nuw %struct.SDL_CursorData, ptr %55, i32 0, i32 0
  %57 = getelementptr inbounds nuw %struct.Wayland_CustomCursor, ptr %56, i32 0, i32 0
  %58 = load ptr, ptr %57, align 8
  %59 = load double, ptr %5, align 8
  %60 = fptrunc double %59 to float
  %61 = call ptr @SDL_GetSurfaceImage(ptr noundef %58, float noundef %60)
  store ptr %61, ptr %9, align 8
  %62 = load ptr, ptr %9, align 8
  %63 = icmp ne ptr %62, null
  br i1 %63, label %66, label %64

64:                                               ; preds = %54
  %65 = load ptr, ptr %6, align 8
  call void @SDL_free_REAL(ptr noundef %65)
  store ptr null, ptr %3, align 8
  store i32 1, ptr %8, align 4
  br label %114

66:                                               ; preds = %54
  %67 = load ptr, ptr %9, align 8
  %68 = getelementptr inbounds nuw %struct.SDL_Surface, ptr %67, i32 0, i32 2
  %69 = load i32, ptr %68, align 8
  %70 = load ptr, ptr %9, align 8
  %71 = getelementptr inbounds nuw %struct.SDL_Surface, ptr %70, i32 0, i32 3
  %72 = load i32, ptr %71, align 4
  %73 = load ptr, ptr %6, align 8
  %74 = getelementptr inbounds nuw %struct.Wayland_ScaledCustomCursor, ptr %73, i32 0, i32 0
  %75 = call zeroext i1 @Wayland_AllocSHMBuffer(i32 noundef %69, i32 noundef %72, ptr noundef %74)
  br i1 %75, label %79, label %76

76:                                               ; preds = %66
  %77 = load ptr, ptr %6, align 8
  call void @SDL_free_REAL(ptr noundef %77)
  %78 = load ptr, ptr %9, align 8
  call void @SDL_DestroySurface_REAL(ptr noundef %78)
  store ptr null, ptr %3, align 8
  store i32 1, ptr %8, align 4
  br label %114

79:                                               ; preds = %66
  %80 = load ptr, ptr %9, align 8
  %81 = getelementptr inbounds nuw %struct.SDL_Surface, ptr %80, i32 0, i32 2
  %82 = load i32, ptr %81, align 8
  %83 = load ptr, ptr %9, align 8
  %84 = getelementptr inbounds nuw %struct.SDL_Surface, ptr %83, i32 0, i32 3
  %85 = load i32, ptr %84, align 4
  %86 = load ptr, ptr %9, align 8
  %87 = getelementptr inbounds nuw %struct.SDL_Surface, ptr %86, i32 0, i32 1
  %88 = load i32, ptr %87, align 4
  %89 = load ptr, ptr %9, align 8
  %90 = getelementptr inbounds nuw %struct.SDL_Surface, ptr %89, i32 0, i32 5
  %91 = load ptr, ptr %90, align 8
  %92 = load ptr, ptr %9, align 8
  %93 = getelementptr inbounds nuw %struct.SDL_Surface, ptr %92, i32 0, i32 4
  %94 = load i32, ptr %93, align 8
  %95 = load ptr, ptr %6, align 8
  %96 = getelementptr inbounds nuw %struct.Wayland_ScaledCustomCursor, ptr %95, i32 0, i32 0
  %97 = getelementptr inbounds nuw %struct.Wayland_SHMBuffer, ptr %96, i32 0, i32 1
  %98 = load ptr, ptr %97, align 8
  %99 = load ptr, ptr %9, align 8
  %100 = getelementptr inbounds nuw %struct.SDL_Surface, ptr %99, i32 0, i32 2
  %101 = load i32, ptr %100, align 8
  %102 = mul nsw i32 %101, 4
  %103 = call zeroext i1 @SDL_PremultiplyAlpha_REAL(i32 noundef %82, i32 noundef %85, i32 noundef %88, ptr noundef %91, i32 noundef %94, i32 noundef 372645892, ptr noundef %98, i32 noundef %102, i1 noundef zeroext true)
  %104 = load double, ptr %5, align 8
  %105 = load ptr, ptr %6, align 8
  %106 = getelementptr inbounds nuw %struct.Wayland_ScaledCustomCursor, ptr %105, i32 0, i32 1
  store double %104, ptr %106, align 8
  %107 = load ptr, ptr @WAYLAND_wl_list_insert, align 8
  %108 = load ptr, ptr %4, align 8
  %109 = getelementptr inbounds nuw %struct.SDL_CursorData, ptr %108, i32 0, i32 0
  %110 = getelementptr inbounds nuw %struct.Wayland_CustomCursor, ptr %109, i32 0, i32 3
  %111 = load ptr, ptr %6, align 8
  %112 = getelementptr inbounds nuw %struct.Wayland_ScaledCustomCursor, ptr %111, i32 0, i32 2
  call void %107(ptr noundef %110, ptr noundef %112)
  %113 = load ptr, ptr %9, align 8
  call void @SDL_DestroySurface_REAL(ptr noundef %113)
  store i32 0, ptr %8, align 4
  br label %114

114:                                              ; preds = %79, %76, %64
  call void @llvm.lifetime.end.p0(i64 8, ptr %9) #7
  %115 = load i32, ptr %8, align 4
  switch i32 %115, label %119 [
    i32 0, label %116
  ]

116:                                              ; preds = %114
  br label %117

117:                                              ; preds = %116, %46
  %118 = load ptr, ptr %6, align 8
  store ptr %118, ptr %3, align 8
  store i32 1, ptr %8, align 4
  br label %119

119:                                              ; preds = %117, %114, %53
  call void @llvm.lifetime.end.p0(i64 8, ptr %6) #7
  %120 = load ptr, ptr %3, align 8
  ret ptr %120
}