; Function Attrs: nounwind uwtable
define internal fastcc ptr @Wayland_CacheScaledCustomCursor(ptr noundef %0, double noundef %1) unnamed_addr #0 {
  %3 = load ptr, ptr @WAYLAND_wl_list_empty, align 8
  %4 = getelementptr inbounds nuw i8, ptr %0, i64 16
  %5 = tail call i32 %3(ptr noundef nonnull %4) #6
  %.not = icmp eq i32 %5, 0
  br i1 %.not, label %6, label %.loopexit

6:                                                ; preds = %2
  %7 = getelementptr inbounds nuw i8, ptr %0, i64 24
  %.pn47 = load ptr, ptr %7, align 8
  %.not4048 = icmp eq ptr %.pn47, %4
  br i1 %.not4048, label %.loopexit, label %.lr.ph

.lr.ph:                                           ; preds = %6, %11
  %.pn49 = phi ptr [ %.pn, %11 ], [ %.pn47, %6 ]
  %8 = getelementptr inbounds i8, ptr %.pn49, i64 -8
  %9 = load double, ptr %8, align 8
  %10 = fcmp oeq double %9, %1
  br i1 %10, label %.loopexit46, label %11

11:                                               ; preds = %.lr.ph
  %12 = getelementptr inbounds nuw i8, ptr %.pn49, i64 8
  %.pn = load ptr, ptr %12, align 8
  %.not40 = icmp eq ptr %.pn, %4
  br i1 %.not40, label %.loopexit, label %.lr.ph, !llvm.loop !19

.loopexit:                                        ; preds = %11, %6, %2
  %13 = tail call noalias dereferenceable_or_null(48) ptr @SDL_calloc_REAL(i64 noundef 1, i64 noundef 48) #7
  %.not42 = icmp eq ptr %13, null
  br i1 %.not42, label %41, label %14

14:                                               ; preds = %.loopexit
  %15 = load ptr, ptr %0, align 8
  %16 = fptrunc double %1 to float
  %17 = tail call ptr @SDL_GetSurfaceImage(ptr noundef %15, float noundef %16) #6
  %.not43 = icmp eq ptr %17, null
  br i1 %.not43, label %18, label %19

18:                                               ; preds = %14
  tail call void @SDL_free_REAL(ptr noundef nonnull %13) #6
  br label %41

19:                                               ; preds = %14
  %20 = getelementptr inbounds nuw i8, ptr %17, i64 8
  %21 = load i32, ptr %20, align 8
  %22 = getelementptr inbounds nuw i8, ptr %17, i64 12
  %23 = load i32, ptr %22, align 4
  %24 = tail call zeroext i1 @Wayland_AllocSHMBuffer(i32 noundef %21, i32 noundef %23, ptr noundef nonnull %13) #6
  br i1 %24, label %.critedge, label %25

25:                                               ; preds = %19
  tail call void @SDL_free_REAL(ptr noundef nonnull %13) #6
  tail call void @SDL_DestroySurface_REAL(ptr noundef nonnull %17) #6
  br label %41

.critedge:                                        ; preds = %19
  %26 = load i32, ptr %20, align 8
  %27 = load i32, ptr %22, align 4
  %28 = getelementptr inbounds nuw i8, ptr %17, i64 4
  %29 = load i32, ptr %28, align 4
  %30 = getelementptr inbounds nuw i8, ptr %17, i64 24
  %31 = load ptr, ptr %30, align 8
  %32 = getelementptr inbounds nuw i8, ptr %17, i64 16
  %33 = load i32, ptr %32, align 8
  %34 = getelementptr inbounds nuw i8, ptr %13, i64 8
  %35 = load ptr, ptr %34, align 8
  %36 = shl nsw i32 %26, 2
  %37 = tail call zeroext i1 @SDL_PremultiplyAlpha_REAL(i32 noundef %26, i32 noundef %27, i32 noundef %29, ptr noundef %31, i32 noundef %33, i32 noundef 372645892, ptr noundef %35, i32 noundef %36, i1 noundef zeroext true) #6
  %38 = getelementptr inbounds nuw i8, ptr %13, i64 24
  store double %1, ptr %38, align 8
  %39 = load ptr, ptr @WAYLAND_wl_list_insert, align 8
  %40 = getelementptr inbounds nuw i8, ptr %13, i64 32
  tail call void %39(ptr noundef nonnull %4, ptr noundef nonnull %40) #6
  tail call void @SDL_DestroySurface_REAL(ptr noundef nonnull %17) #6
  br label %41

.loopexit46:                                      ; preds = %.lr.ph
  %.034.le = getelementptr inbounds i8, ptr %.pn49, i64 -32
  br label %41

41:                                               ; preds = %.loopexit46, %.critedge, %18, %25, %.loopexit
  %.0 = phi ptr [ null, %.loopexit ], [ null, %25 ], [ null, %18 ], [ %13, %.critedge ], [ %.034.le, %.loopexit46 ]
  ret ptr %.0
}